; Function Attrs: mustprogress uwtable
define dso_local noundef i32 @_ZNK20b3ConvexHullInternal11Rational1287compareERKS0_(ptr noundef nonnull readonly align 8 captures(none) dereferenceable(37) %0, ptr noundef nonnull readonly align 8 captures(none) dereferenceable(37) %1) local_unnamed_addr #4 align 2 {
  %3 = alloca %"class.b3ConvexHullInternal::Int128", align 8
  %4 = alloca %"class.b3ConvexHullInternal::Int128", align 8
  %5 = alloca %"class.b3ConvexHullInternal::Int128", align 8
  %6 = alloca %"class.b3ConvexHullInternal::Int128", align 8
  %7 = getelementptr inbounds nuw i8, ptr %0, i64 32
  %8 = load i32, ptr %7, align 8, !tbaa !15
  %9 = getelementptr inbounds nuw i8, ptr %1, i64 32
  %10 = load i32, ptr %9, align 8, !tbaa !15
  %.not = icmp eq i32 %8, %10
  br i1 %.not, label %13, label %11

11:                                               ; preds = %2
  %12 = sub nsw i32 %8, %10
  br label %55

13:                                               ; preds = %2
  %14 = icmp eq i32 %8, 0
  br i1 %14, label %55, label %15

15:                                               ; preds = %13
  %16 = getelementptr inbounds nuw i8, ptr %0, i64 36
  %17 = load i8, ptr %16, align 4, !tbaa !18, !range !19, !noundef !20
  %18 = trunc nuw i8 %17 to i1
  br i1 %18, label %19, label %25

19:                                               ; preds = %15
  %20 = sext i32 %8 to i64
  %21 = load i64, ptr %0, align 8, !tbaa !21
  %22 = mul nsw i64 %21, %20
  %23 = tail call noundef i32 @_ZNK20b3ConvexHullInternal11Rational1287compareEl(ptr noundef nonnull align 8 dereferenceable(37) %1, i64 noundef %22)
  %24 = sub nsw i32 0, %23
  br label %55

25:                                               ; preds = %15
  call void @llvm.lifetime.start.p0(i64 16, ptr nonnull %3) #19
  call void @llvm.lifetime.start.p0(i64 16, ptr nonnull %4) #19
  call void @llvm.lifetime.start.p0(i64 16, ptr nonnull %5) #19
  call void @llvm.lifetime.start.p0(i64 16, ptr nonnull %6) #19
  %.sroa.06.0.copyload = load i64, ptr %0, align 8, !tbaa !9
  %.sroa.27.0..sroa_idx = getelementptr inbounds nuw i8, ptr %0, i64 8
  %.sroa.27.0.copyload = load i64, ptr %.sroa.27.0..sroa_idx, align 8, !tbaa !9
  %26 = getelementptr inbounds nuw i8, ptr %1, i64 16
  %.sroa.04.0.copyload = load i64, ptr %26, align 8, !tbaa !9
  %.sroa.25.0..sroa_idx = getelementptr inbounds nuw i8, ptr %1, i64 24
  %.sroa.25.0.copyload = load i64, ptr %.sroa.25.0..sroa_idx, align 8, !tbaa !9
  call void @_ZN20b3ConvexHullInternal4DMulINS_6Int128EmE3mulES1_S1_RS1_S3_(i64 %.sroa.06.0.copyload, i64 %.sroa.27.0.copyload, i64 %.sroa.04.0.copyload, i64 %.sroa.25.0.copyload, ptr noundef nonnull align 8 dereferenceable(16) %3, ptr noundef nonnull align 8 dereferenceable(16) %4)
  %27 = getelementptr inbounds nuw i8, ptr %0, i64 16
  %.sroa.02.0.copyload = load i64, ptr %27, align 8, !tbaa !9
  %.sroa.23.0..sroa_idx = getelementptr inbounds nuw i8, ptr %0, i64 24
  %.sroa.23.0.copyload = load i64, ptr %.sroa.23.0..sroa_idx, align 8, !tbaa !9
  %.sroa.0.0.copyload = load i64, ptr %1, align 8, !tbaa !9
  %.sroa.2.0..sroa_idx = getelementptr inbounds nuw i8, ptr %1, i64 8
  %.sroa.2.0.copyload = load i64, ptr %.sroa.2.0..sroa_idx, align 8, !tbaa !9
  call void @_ZN20b3ConvexHullInternal4DMulINS_6Int128EmE3mulES1_S1_RS1_S3_(i64 %.sroa.02.0.copyload, i64 %.sroa.23.0.copyload, i64 %.sroa.0.0.copyload, i64 %.sroa.2.0.copyload, ptr noundef nonnull align 8 dereferenceable(16) %5, ptr noundef nonnull align 8 dereferenceable(16) %6)
  %28 = getelementptr inbounds nuw i8, ptr %4, i64 8
  %29 = load i64, ptr %28, align 8, !tbaa !4
  %30 = getelementptr inbounds nuw i8, ptr %6, i64 8
  %31 = load i64, ptr %30, align 8, !tbaa !4
  %32 = icmp ult i64 %29, %31
  br i1 %32, label %_ZNK20b3ConvexHullInternal6Int1284ucmpERKS0_.exit.thread, label %33

33:                                               ; preds = %25
  %34 = icmp ugt i64 %29, %31
  br i1 %34, label %_ZNK20b3ConvexHullInternal6Int1284ucmpERKS0_.exit.thread, label %35

35:                                               ; preds = %33
  %36 = load i64, ptr %4, align 8, !tbaa !22
  %37 = load i64, ptr %6, align 8, !tbaa !22
  %38 = icmp ult i64 %36, %37
  br i1 %38, label %_ZNK20b3ConvexHullInternal6Int1284ucmpERKS0_.exit.thread, label %_ZNK20b3ConvexHullInternal6Int1284ucmpERKS0_.exit

_ZNK20b3ConvexHullInternal6Int1284ucmpERKS0_.exit: ; preds = %35
  %.not25 = icmp ugt i64 %36, %37
  br i1 %.not25, label %_ZNK20b3ConvexHullInternal6Int1284ucmpERKS0_.exit.thread, label %39

39:                                               ; preds = %_ZNK20b3ConvexHullInternal6Int1284ucmpERKS0_.exit
  %40 = getelementptr inbounds nuw i8, ptr %3, i64 8
  %41 = load i64, ptr %40, align 8, !tbaa !4
  %42 = getelementptr inbounds nuw i8, ptr %5, i64 8
  %43 = load i64, ptr %42, align 8, !tbaa !4
  %44 = icmp ult i64 %41, %43
  br i1 %44, label %_ZNK20b3ConvexHullInternal6Int1284ucmpERKS0_.exit.thread, label %45

45:                                               ; preds = %39
  %46 = icmp ugt i64 %41, %43
  br i1 %46, label %_ZNK20b3ConvexHullInternal6Int1284ucmpERKS0_.exit.thread, label %47

47:                                               ; preds = %45
  %48 = load i64, ptr %3, align 8, !tbaa !22
  %49 = load i64, ptr %5, align 8, !tbaa !22
  %50 = icmp ult i64 %48, %49
  br i1 %50, label %_ZNK20b3ConvexHullInternal6Int1284ucmpERKS0_.exit.thread, label %51

51:                                               ; preds = %47
  %52 = icmp ugt i64 %48, %49
  %..i19 = zext i1 %52 to i32
  br label %_ZNK20b3ConvexHullInternal6Int1284ucmpERKS0_.exit.thread

_ZNK20b3ConvexHullInternal6Int1284ucmpERKS0_.exit.thread: ; preds = %51, %47, %45, %39, %_ZNK20b3ConvexHullInternal6Int1284ucmpERKS0_.exit, %25, %33, %35
  %.0.i20.sink = phi i32 [ 1, %_ZNK20b3ConvexHullInternal6Int1284ucmpERKS0_.exit ], [ -1, %35 ], [ 1, %33 ], [ -1, %25 ], [ -1, %39 ], [ 1, %45 ], [ -1, %47 ], [ %..i19, %51 ]
  %53 = load i32, ptr %7, align 8, !tbaa !15
  %54 = mul nsw i32 %53, %.0.i20.sink
  call void @llvm.lifetime.end.p0(i64 16, ptr nonnull %6) #19
  call void @llvm.lifetime.end.p0(i64 16, ptr nonnull %5) #19
  call void @llvm.lifetime.end.p0(i64 16, ptr nonnull %4) #19
  call void @llvm.lifetime.end.p0(i64 16, ptr nonnull %3) #19
  br label %55

55:                                               ; preds = %13, %_ZNK20b3ConvexHullInternal6Int1284ucmpERKS0_.exit.thread, %19, %11
  %.0 = phi i32 [ %12, %11 ], [ %24, %19 ], [ %54, %_ZNK20b3ConvexHullInternal6Int1284ucmpERKS0_.exit.thread ], [ 0, %13 ]
  ret i32 %.0
}